; Function Attrs: nounwind uwtable
define i64 @l_Lean_IR_Borrow_OwnedSet_getHash(ptr noundef readonly captures(none) %0) local_unnamed_addr #1 {
  %2 = getelementptr inbounds nuw i8, ptr %0, i64 8
  %3 = load ptr, ptr %2, align 8, !tbaa !9
  %4 = getelementptr inbounds nuw i8, ptr %0, i64 16
  %5 = load ptr, ptr %4, align 8, !tbaa !9
  %6 = tail call i64 @l_Lean_Name_hash___override(ptr noundef %3) #6
  %7 = ptrtoint ptr %5 to i64
  %8 = and i64 %7, 1
  %.not.i = icmp eq i64 %8, 0
  br i1 %.not.i, label %11, label %9

9:                                                ; preds = %1
  %10 = lshr i64 %7, 1
  br label %lean_uint64_of_nat.exit

11:                                               ; preds = %1
  %12 = tail call i64 @lean_uint64_of_big_nat(ptr noundef %5) #6
  br label %lean_uint64_of_nat.exit

lean_uint64_of_nat.exit:                          ; preds = %9, %11
  %13 = phi i64 [ %10, %9 ], [ %12, %11 ]
  %14 = tail call i64 @lean_uint64_mix_hash(i64 noundef %6, i64 noundef %13) #6
  ret i64 %14
}